ccopy_reg
_reconstructor
p0
(cCMGTools.RootTools.statistics.Counter
Counter
p1
c__builtin__
list
p2
(lp3
(lp4
S'all events'
p5
aI0
aa(lp6
S'pass mtw cuts'
p7
aI0
aa(lp8
S'pass mll cuts'
p9
aI0
aa(lp10
S'pass lepton deltaR cuts'
p11
aI0
aa(lp12
S'pass photon deltaR cuts'
p13
aI0
aa(lp14
S'accepted events'
p15
aI0
aatp16
Rp17
(dp18
S'name'
p19
S'events'
p20
sS'dico'
p21
(dp22
g7
I1
sg5
I0
sg9
I2
sg15
I5
sg13
I4
sg11
I3
ssb.