ccopy_reg
_reconstructor
p0
(cCMGTools.RootTools.statistics.Counter
Counter
p1
c__builtin__
list
p2
(lp3
(lp4
S'all events'
p5
aI6
aa(lp6
S'pass alphaTCuts'
p7
aI0
aa(lp8
S'pass forwardJetVeto'
p9
aI4
aa(lp10
S'pass MHT/MET cut'
p11
aI2
aa(lp12
S'accepted events'
p13
aI0
aatp14
Rp15
(dp16
S'name'
p17
S'events'
p18
sS'dico'
p19
(dp20
g13
I4
sg5
I0
sg7
I1
sg9
I2
sg11
I3
ssb.