ccopy_reg
_reconstructor
p0
(cCMGTools.RootTools.statistics.Counter
Counter
p1
c__builtin__
list
p2
(lp3
(lp4
S'all events'
p5
aI9
aa(lp6
S'has >=1 selected Track'
p7
aI8
aa(lp8
S'has >=1 selected Iso Track'
p9
aI2
aatp10
Rp11
(dp12
S'name'
p13
S'events'
p14
sS'dico'
p15
(dp16
g5
I0
sg9
I2
sg7
I1
ssb.