ccopy_reg
_reconstructor
p0
(cCMGTools.RootTools.statistics.Counter
Counter
p1
c__builtin__
list
p2
(lp3
(lp4
S'all events'
p5
aI575
aa(lp6
S'has >=1 tau at preselection'
p7
aI93
aa(lp8
S'has >=1 selected taus'
p9
aI61
aa(lp10
S'has >=1 loose taus'
p11
aI39
aa(lp12
S'has >=1 inclusive taus'
p13
aI93
aatp14
Rp15
(dp16
S'name'
p17
S'events'
p18
sS'dico'
p19
(dp20
g9
I2
sg5
I0
sg13
I4
sg11
I3
sg7
I1
ssb.