ccopy_reg
_reconstructor
p0
(cCMGTools.RootTools.statistics.Counter
Counter
p1
c__builtin__
list
p2
(lp3
(lp4
S'all events'
p5
aI9
aa(lp6
S'pass alphaTCuts'
p7
aI0
aa(lp8
S'pass forwardJetVeto'
p9
aI9
aa(lp10
S'accepted events'
p11
aI0
aatp12
Rp13
(dp14
S'name'
p15
S'events'
p16
sS'dico'
p17
(dp18
g5
I0
sg7
I1
sg9
I2
sg11
I3
ssb.