ccopy_reg
_reconstructor
p0
(cCMGTools.RootTools.statistics.Counter
Counter
p1
c__builtin__
list
p2
(lp3
(lp4
S'all events'
p5
aI431
aa(lp6
S'pass jetPtCuts'
p7
aI210
aa(lp8
S'pass jetVeto'
p9
aI210
aa(lp10
S'pass met'
p11
aI210
aa(lp12
S'pass HT'
p13
aI210
aa(lp14
S'pass MHT'
p15
aI210
aa(lp16
S'pass nBJet'
p17
aI210
aa(lp18
S'accepted events'
p19
aI210
aatp20
Rp21
(dp22
S'name'
p23
S'events'
p24
sS'dico'
p25
(dp26
g7
I1
sg5
I0
sg9
I2
sg15
I5
sg19
I7
sg17
I6
sg11
I3
sg13
I4
ssb.