ccopy_reg
_reconstructor
p0
(cCMGTools.RootTools.statistics.Average
Average
p1
c__builtin__
object
p2
Ntp3
Rp4
(dp5
S'sumw'
p6
F1000.0
sS'sumwx'
p7
F213.11563481093253
sS'sumwx2'
p8
F193.9770017713908
sS'name'
p9
S'vertexWeight'
p10
sb.